(dp0
I0
(lp1
V#Furious8 @FF7Movie @FastFuriousFilm @FuriousFast7 @FastFurious can't wait to see this!!  https://t.co/2SgUNoq5rw
p2
aVRT @FF7Movie: ''You'll always be my brother.'' #ForPaul http://t.co/eayqkvwSdd
p3
aVRT @FF7Movie: ''You'll always be my brother.'' #ForPaul http://t.co/eayqkvwSdd
p4
aVRT @FF7Movie: ''You'll always be my brother.'' #ForPaul http://t.co/eayqkvwSdd
p5
aVI have a question.. will Dom rebuild the 1327 and most importantly will Dom rebuild the Charger?Thanks\U0001f60a\U0001f60d\u2764 @_vindisel @FF7Movie @FastFurious
p6
aV@FF7Movie limited edition #ForPaul shirts here, all proceeds go to his charity ROWW. ---&gt; http://t.co/0PHrf9QFu2
p7
aVRT @FF7Movie: ''You'll always be my brother.'' #ForPaul http://t.co/eayqkvwSdd
p8
aVRT @FF7Movie: ''You'll always be my brother.'' #ForPaul http://t.co/eayqkvwSdd
p9
aVRT @FF7Movie: ''You'll always be my brother.'' #ForPaul http://t.co/eayqkvwSdd
p10
aVRT @FF7Movie: ''You'll always be my brother.'' #ForPaul http://t.co/eayqkvwSdd
p11
aVRT @FF7Movie: Here's Nathalie Emmanuel, @RealPaulWalker, @MRodOfficial and @Ludacris on the set of #Fast7! #FF7 http://t.co/Hv2dy7zZ0h
p12
aVFirst time ever (10+ years of crew cut) a slow song has won the Crew Cut - Si win's with @charlieputh See You Again from @FF7Movie
p13
aVFirst time ever (10+ years of crew cut) a slow song has won the Crew Cut - Si win's with @charlieputh See You Again from @FF7Movie
p14
aVRT @FF7Movie: ''You'll always be my brother.'' #ForPaul http://t.co/eayqkvwSdd
p15
aV@EnternallyFree @FF7Movie go get your limited edition #ForPaul shirts! All proceeds go to ROWW! http://t.co/DWIhA0CK8u
p16
aVI saw  w today #fastfurious7 and it is remarkable - Literally &amp; Figuratively @FF7Movie
p17
aVRT @tvddelenateam: @FF7Movie Wonderful tribute . You have been very successful , I am wholeheartedly with you.\U0001f494 @RealPaulWalker http://t.co\u2026
p18
aVRT @FF7Movie: ''You'll always be my brother.'' #ForPaul http://t.co/eayqkvwSdd
p19
aVRT @FF7Movie: ''You'll always be my brother.'' #ForPaul http://t.co/eayqkvwSdd
p20
aVRT @FF7Movie: ''You'll always be my brother.'' #ForPaul http://t.co/eayqkvwSdd
p21
aVRT @FF7Movie: ''You'll always be my brother.'' #ForPaul http://t.co/eayqkvwSdd
p22
aVRT @FF7Movie: #JasonStatham &amp; #VinDiesel go head to head in #Furious7!\u000aGet tickets: http://t.co/WWvdhabjUp http://t.co/XTQXwpf2Eu
p23
aVRT @FF7Movie: ''You'll always be my brother.'' #ForPaul http://t.co/eayqkvwSdd
p24
aVRT @FF7Movie: ''You'll always be my brother.'' #ForPaul http://t.co/eayqkvwSdd
p25
aVRT @FF7Movie: ''You'll always be my brother.'' #ForPaul http://t.co/eayqkvwSdd
p26
aVRT @FF7Movie: ''You'll always be my brother.'' #ForPaul http://t.co/eayqkvwSdd
p27
aV@ff7moviert @ff7movie http://t.co/T7BEkuSXVH @ff7moviert @ff7movie want this is #ff8 #aa12 shotgun
p28
aVRT @ClaritaPerez95: @mike_rovi @FF7Movie bestiaaaal \U0001f60d
p29
aV@mike_rovi @FF7Movie bestiaaaal \U0001f60d
p30
aVRT @FF7Movie: #JasonStatham &amp; #VinDiesel go head to head in #Furious7!\u000aGet tickets: http://t.co/WWvdhabjUp http://t.co/XTQXwpf2Eu
p31
aVRT @ClaritaPerez95: \u201c@FF7Movie: ''You'll always be my brother.'' #ForPaul http://t.co/PDtwUdWpX1\u201d
p32
aVRT @FF7Movie: ''You'll always be my brother.'' #ForPaul http://t.co/eayqkvwSdd
p33
aVRT @FF7Movie: ''You'll always be my brother.'' #ForPaul http://t.co/eayqkvwSdd
p34
aV\u201c@FF7Movie: ''You'll always be my brother.'' #ForPaul http://t.co/PDtwUdWpX1\u201d
p35
aVRT @FF7Movie: ''You'll always be my brother.'' #ForPaul http://t.co/eayqkvwSdd
p36
aVRT @LokeMiller: Fast and Furious https://t.co/mU8MuWGIxC via @YouTube\u000a#FF7Movie #GTA #rockstar
p37
aVRT @FF7Movie: Ready to ride. How many times have you seen #Furious7?\u000aSee it again: http://t.co/WWvdhabjUp http://t.co/sXPRGEPvbC
p38
aVRT @FF7Movie: ''You'll always be my brother.'' #ForPaul http://t.co/eayqkvwSdd
p39
aVRT @FF7Movie: ''You'll always be my brother.'' #ForPaul http://t.co/eayqkvwSdd
p40
aVRT @FF7Movie: ''You'll always be my brother.'' #ForPaul http://t.co/eayqkvwSdd
p41
aVRT @FF7Movie: ''You'll always be my brother.'' #ForPaul http://t.co/eayqkvwSdd
p42
aVRT @FF7Movie: ''You'll always be my brother.'' #ForPaul http://t.co/eayqkvwSdd
p43
aVRT @FF7Movie: ''You'll always be my brother.'' #ForPaul http://t.co/eayqkvwSdd
p44
aVFast and Furious https://t.co/mU8MuWGIxC via @YouTube\u000a#FF7Movie #GTA #rockstar
p45
aVRT @FF7Movie: ''You'll always be my brother.'' #ForPaul http://t.co/eayqkvwSdd
p46
aVRT @FF7Movie: ''You'll always be my brother.'' #ForPaul http://t.co/eayqkvwSdd
p47
aVRT @FF7Movie: ''You'll always be my brother.'' #ForPaul http://t.co/eayqkvwSdd
p48
aVRT @FF7Movie: ''You'll always be my brother.'' #ForPaul http://t.co/eayqkvwSdd
p49
aVRT @FF7Movie: ''You'll always be my brother.'' #ForPaul http://t.co/eayqkvwSdd
p50
aVRT @FF7Movie: ''You'll always be my brother.'' #ForPaul http://t.co/eayqkvwSdd
p51
asI1
(lp52
VRT @FF7Movie: ''You'll always be my brother.'' #ForPaul http://t.co/eayqkvwSdd
p53
aVRT @FF7Movie: ''You'll always be my brother.'' #ForPaul http://t.co/eayqkvwSdd
p54
aVRT @FF7Movie: ''You'll always be my brother.'' #ForPaul http://t.co/eayqkvwSdd
p55
aVRT @FF7Movie: ''You'll always be my brother.'' #ForPaul http://t.co/eayqkvwSdd
p56
aV@FF7Movie for Paul
p57
aVRT @FF7Movie: ''You'll always be my brother.'' #ForPaul http://t.co/eayqkvwSdd
p58
aVRT @FF7Movie: ''You'll always be my brother.'' #ForPaul http://t.co/eayqkvwSdd
p59
aVRT @FF7Movie: ''You'll always be my brother.'' #ForPaul http://t.co/eayqkvwSdd
p60
aVRT @FF7Movie: ''You'll always be my brother.'' #ForPaul http://t.co/eayqkvwSdd
p61
aVRT @FF7Movie: ''You'll always be my brother.'' #ForPaul http://t.co/eayqkvwSdd
p62
aVRT @FF7Movie: ''You'll always be my brother.'' #ForPaul http://t.co/eayqkvwSdd
p63
aVRT @FF7Movie: ''You'll always be my brother.'' #ForPaul http://t.co/eayqkvwSdd
p64
aVRT @FF7Movie: ''You'll always be my brother.'' #ForPaul http://t.co/eayqkvwSdd
p65
aVRT @FF7Movie: ''You'll always be my brother.'' #ForPaul http://t.co/eayqkvwSdd
p66
aVJust got done watching @ff7movie in Imax #awesome movie #rideordie #RIPPaulWalker
p67
aVRT @FF7Movie: ''You'll always be my brother.'' #ForPaul http://t.co/eayqkvwSdd
p68
aVRT @FF7Movie: ''You'll always be my brother.'' #ForPaul http://t.co/eayqkvwSdd
p69
aVRT @FF7Movie: ''You'll always be my brother.'' #ForPaul http://t.co/eayqkvwSdd
p70
aVRT @FF7Movie: ''You'll always be my brother.'' #ForPaul http://t.co/eayqkvwSdd
p71
aVRT @FF7Movie: ''You'll always be my brother.'' #ForPaul http://t.co/eayqkvwSdd
p72
aVRT @FF7Movie: ''You'll always be my brother.'' #ForPaul http://t.co/eayqkvwSdd
p73
aVRT @FF7Movie: ''You'll always be my brother.'' #ForPaul http://t.co/eayqkvwSdd
p74
aVRT @FF7Movie: ''You'll always be my brother.'' #ForPaul http://t.co/eayqkvwSdd
p75
aVRT @FF7Movie: ''You'll always be my brother.'' #ForPaul http://t.co/eayqkvwSdd
p76
aVRT @FF7Movie: ''You'll always be my brother.'' #ForPaul http://t.co/eayqkvwSdd
p77
aVRT @FF7Movie: ''You'll always be my brother.'' #ForPaul http://t.co/eayqkvwSdd
p78
aVRT @FF7Movie: ''You'll always be my brother.'' #ForPaul http://t.co/eayqkvwSdd
p79
aVRT @FF7Movie: ''You'll always be my brother.'' #ForPaul http://t.co/eayqkvwSdd
p80
aV@FF7Movie nice one! Again aweeeesome job :) and in the end... #ForPaul #RideOrDie
p81
aVRT @FF7Movie: ''You'll always be my brother.'' #ForPaul http://t.co/eayqkvwSdd
p82
aVRT @FF7Movie: ''You'll always be my brother.'' #ForPaul http://t.co/eayqkvwSdd
p83
aVRT @FF7Movie: ''You'll always be my brother.'' #ForPaul http://t.co/eayqkvwSdd
p84
aVRT @FF7Movie: ''You'll always be my brother.'' #ForPaul http://t.co/eayqkvwSdd
p85
aVRT @FF7Movie: ''You'll always be my brother.'' #ForPaul http://t.co/eayqkvwSdd
p86
aVRT @FF7Movie: ''You'll always be my brother.'' #ForPaul http://t.co/eayqkvwSdd
p87
aVRT @FF7Movie: ''You'll always be my brother.'' #ForPaul http://t.co/eayqkvwSdd
p88
aVRT @FF7Movie: ''You'll always be my brother.'' #ForPaul http://t.co/eayqkvwSdd
p89
aVRT @FF7Movie: ''You'll always be my brother.'' #ForPaul http://t.co/eayqkvwSdd
p90
aVRT @FF7Movie: We graduated to a whole new level. Thanks to each one of you for your massive love and support! #FastFamily #Furious7 http://\u2026
p91
aVRT @FF7Movie: ''You'll always be my brother.'' #ForPaul http://t.co/eayqkvwSdd
p92
aVRT @FF7Movie: ''You'll always be my brother.'' #ForPaul http://t.co/eayqkvwSdd
p93
aVRT @FF7Movie: ''You'll always be my brother.'' #ForPaul http://t.co/eayqkvwSdd
p94
aVRT @FF7Movie: ''You'll always be my brother.'' #ForPaul http://t.co/eayqkvwSdd
p95
aV"@FF7Movie: ''You'll always be my brother.'' #ForPaul http://t.co/9WBFUA7F9p"\u000afor paul\U0001f490\U0001f490\U0001f490
p96
aVRT @FF7Movie: ''You'll always be my brother.'' #ForPaul http://t.co/eayqkvwSdd
p97
aVRT @FF7Movie: ''You'll always be my brother.'' #ForPaul http://t.co/eayqkvwSdd
p98
aVRT @FF7Movie: ''You'll always be my brother.'' #ForPaul http://t.co/eayqkvwSdd
p99
aVRT @FF7Movie: ''You'll always be my brother.'' #ForPaul http://t.co/eayqkvwSdd
p100
aVRT @Washseile: Xi Jinping corruption crackdown drives @Lamborghini sales in Australia http://t.co/qCkJS3Odci via @LifestyleAU @ff7film @FF7\u2026
p101
aVRT @Washseile: Xi Jinping corruption crackdown drives @Lamborghini sales in Australia http://t.co/qCkJS3Odci via @LifestyleAU @ff7film @FF7\u2026
p102
asI2
(lp103
V@FF7Movie PLEASE DON'T BE OFFENDED but I just wanted to wish you a beautiful day because you deserve it and are worth it. #passonthekindness
p104
aV@FastFurious @FastFuriousFilm @FF7Movie @FuriousFast7 @FastFamilyFrv @fast7Official vin diesel 1985  https://t.co/o3pWpv9yq7
p105
aVRT @TheNishuDubey: @VinDieselPage @RealPaulWalker @FF7Movie This. &lt;3 \U0001f622 http://t.co/GFVjvogAr1
p106
aVRT FF7Movie: #JasonStatham &amp; #VinDiesel go head to head in #Furious7!\u000aGet tickets: \u2026 http://t.co/fHuOxA1DWk http://t.co/m5i85UhM7P
p107
aVRT @FF7Movie: #JasonStatham &amp; #VinDiesel go head to head in #Furious7!\u000aGet tickets: http://t.co/WWvdhabjUp http://t.co/XTQXwpf2Eu
p108
aVBig sales for music from @EmpireFOX, @FF7Movie prove that soundtracks are a thing again. http://t.co/gmqRMfziRT http://t.co/MZaoj8HQcr
p109
aVRT FF7Movie: We graduated to a whole new level. Thanks to each one of you for your massive\u2026 http://t.co/fHuOxA1DWk http://t.co/LrZvIFfYAg
p110
aVRT @FF7Movie: We graduated to a whole new level. Thanks to each one of you for your massive love and support! #FastFamily #Furious7 http://\u2026
p111
aVRT @FF7Movie: ''I don't have friends. I got family.'' - Dominic Toretto | Your first look at #Furious7: http://t.co/a6oMslfPK3 http://t.co/\u2026
p112
aVRT @FF7Movie: You never give up on family. @FastFurious #Furious7 http://t.co/utcAnDz8QY
p113
aVRT @FF7Movie: Taking things to the next level in #Furious7. @FastFurious http://t.co/jJ9Iz74an9
p114
aVRT @FF7Movie: Today marks the anniversary of the day that we lost a piece of our hearts. Race In Paradise, Angel. #PaulWalker http://t.co/v\u2026
p115
aVRT @FF7Movie: The #FastFamily is unbreakable. #Furious7 (Photo cred: @FastFurious) http://t.co/E70neW7PKv
p116
aVRT @FF7Movie: Happy Birthday to our very own @Tyrese! #Furious7 http://t.co/Xd4bDkcV6M
p117
aVRT @FF7Movie: The countdown begins. Are you ready for April 3? @FastFurious #Furious7 http://t.co/RXFWjyIbXo
p118
aVRT @FF7Movie: Walking away isn't an option this time. Not at all. @FastFurious #Furious7 http://t.co/HqG57RJKTf
p119
aVRT @FF7Movie: Vengeance hits home on April 3. @FastFurious #Furious7 http://t.co/Ly0zu77DYQ
p120
aVRT @FF7Movie: Some things never change. @FastFurious #Furious7 http://t.co/fOrheKU7e3
p121
aVRT @FF7Movie: A quick #FastFact about Race Wars. @FastFurious #Furious7 http://t.co/rLKhBIrK3K
p122
aVRT @FF7Movie: Blood makes you related. Loyalty makes you family. @FastFurious #Furious7 http://t.co/QVSFtXvnsG
p123
aVRT @FF7Movie: All roads lead to this. #Furious7 \u000aGet your tickets now: http://t.co/WWvdhabjUp http://t.co/pOsNVrztre
p124
aVRT @FF7Movie: Family is forever. No matter what. #Furious7\u000aGet your tickets now: http://t.co/WWvdhabjUp http://t.co/EQnsChoKD8
p125
aVRT @FF7Movie: ''No matter where you are... You'll always be with me. And you'll always be my brother.'' #Furious7 #ForPaul http://t.co/IfJD\u2026
p126
aVRT @FF7Movie: #JasonStatham &amp; #VinDiesel go head to head in #Furious7!\u000aGet tickets: http://t.co/WWvdhabjUp http://t.co/XTQXwpf2Eu
p127
aV"@FF7Movie: #JasonStatham &amp; #VinDiesel go head to head in #Furious7!\u000aGet tickets: http://t.co/CHA0qxcCRB http://t.co/eHyEetM3EZ #forpaul
p128
aVRT @missJJchoi: Thank you @JordanaBrewster 4 being so sweet! #brainybeauty #prazer @FF7Movie #JordanaBrewster http://t.co/htGAwbWB7C http:/\u2026
p129
aVRT @missJJchoi: Thank you @JordanaBrewster 4 being so sweet! #brainybeauty #prazer @FF7Movie #JordanaBrewster http://t.co/htGAwbWB7C http:/\u2026
p130
aVRT @missJJchoi: Thank you @JordanaBrewster 4 being so sweet! #brainybeauty #prazer @FF7Movie #JordanaBrewster http://t.co/htGAwbWB7C http:/\u2026
p131
aVWow @FF7Movie way to keep me up past my bedtime.... RIP Paul Walker!!!  Let the flame burn on!!! #PaulWalker
p132
aVRT @FF7Movie: We graduated to a whole new level. Thanks to each one of you for your massive love and support! #FastFamily #Furious7 http://\u2026
p133
aVRT @FF7Movie: We graduated to a whole new level. Thanks to each one of you for your massive love and support! #FastFamily #Furious7 http://\u2026
p134
aVRT @OfficialFastF6: ''We always took pride in trying to make each one better than the last\u2026'' http://t.co/UVx0Kl4dHg @OffVinDiesel http://t\u2026
p135
aVRT @OfficialFastF6: Once family, always family. #ThrowbackThursday  http://t.co/lKX7yPKhTJ
p136
aVRT @OfficialFastF6: ''Ok, the Fast7 teaser poster isn't real, but is a cool fan-made one.'' http://t.co/6AcTMubJjf
p137
aVRT @FF7Movie: We graduated to a whole new level. Thanks to each one of you for your massive love and support! #FastFamily #Furious7 http://\u2026
p138
aVRT @FF7Movie: Ready to ride. How many times have you seen #Furious7?\u000aSee it again: http://t.co/WWvdhabjUp http://t.co/sXPRGEPvbC
p139
aVRT @missJJchoi: Thank you @JordanaBrewster 4 being so sweet! #brainybeauty #prazer @FF7Movie #JordanaBrewster http://t.co/htGAwbWB7C http:/\u2026
p140
aVRT @missJJchoi: Thank you @JordanaBrewster 4 being so sweet! #brainybeauty #prazer @FF7Movie #JordanaBrewster http://t.co/htGAwbWB7C http:/\u2026
p141
aVThank you @JordanaBrewster 4 being so sweet! #brainybeauty #prazer @FF7Movie #JordanaBrewster http://t.co/htGAwbWB7C http://t.co/GBk16lAZ3O
p142
aVRT @PeterBadr99: @FF7Movie R.I.P Paul Walker \u000aWe love you Forever \u2665 \u2661 \u2665 http://t.co/DN6bRDuGnk
p143
aVRT @FF7Movie: Family is forever. No matter what. #Furious7\u000aGet your tickets now: http://t.co/WWvdhabjUp http://t.co/EQnsChoKD8
p144
aVRT FF7Movie: ''No matter where you are... You'll always be with me. And you'll always be m\u2026 http://t.co/fHuOxA1DWk http://t.co/gK4Pv8lwV2
p145
aVRT FF7Movie: Let's get to work. Retweet if you're seeing #Furious7 this weekend!\u000aGet ticke\u2026 http://t.co/fHuOxA1DWk http://t.co/JgITkUMXEM
p146
aVRT @FF7Movie: ''No matter where you are... You'll always be with me. And you'll always be my brother.'' #Furious7 #ForPaul http://t.co/IfJD\u2026
p147
aVRT @FF7Movie: Let's get to work. Retweet if you're seeing #Furious7 this weekend!\u000aGet tickets: http://t.co/WWvdhabjUp http://t.co/0eQNSmfaF6
p148
aVRT @JWshere_HvH: Fast Furious 7: Paul Walker Tribute  GTA 5 Version @FF7Movie   #fastfurious7 #PaulWalker  #Tribute #Furious7 https://t.co/\u2026
p149
aVJust saw @FF7Movie easily the best of the 7 and a fitting tribute!!!
p150
aV@FF7Movie Congrats #FF7
p151
aV@UniversalPics @FF7Movie @FastFurious there needs to be a whole bunch of Dom &amp; Letty love in F8 okay? please &amp; thank ya.
p152
aVRT JWshere_HvH: Fast Furious 7: Paul Walker Tribute  GTA 5 Version FF7Movie   #fastfurious\u2026 http://t.co/fHuOxA1DWk http://t.co/hqQf1dYPul
p153
asI3
(lp154
VRT @Fast7Quotes: 'A real driver knows exactly what's in his car'- Dominic Toretto http://t.co/Ue3JNrhHfO
p155
aV@FF7Movie what stunts great to see # abu dhabi in its full glory love the hotels its been fun ...\u000aCongratulations on crew for hitting 1b \U0001f698
p156
aVCatching @FF7Movie Wow unreal timing and flying cars this ones out of this world #FastFurious7
p157
aVRT @FF7Movie: We graduated to a whole new level. Thanks to each one of you for your massive love and support! #FastFamily #Furious7 http://\u2026
p158
aV@FF7Movie When the moive is coming out to stores??
p159
aV@FF7Movie When the moive coming out to the store???
p160
aVRT @FF7Movie: Ready to ride. How many times have you seen #Furious7?\u000aSee it again: http://t.co/WWvdhabjUp http://t.co/sXPRGEPvbC
p161
aVRT FF7Movie: Ready to ride. How many times have you seen #Furious7?\u000aSee it again: \u2026 http://t.co/fHuOxA1DWk http://t.co/XVOK3RZiVS
p162
aVRT @FF7Movie: Ready to ride. How many times have you seen #Furious7?\u000aSee it again: http://t.co/WWvdhabjUp http://t.co/sXPRGEPvbC
p163
aVRT @FF7Movie: ''No matter where you are... You'll always be with me. And you'll always be my brother.'' #Furious7 #ForPaul http://t.co/IfJD\u2026
p164
aV@FF7Movie keep remember Paul walker did curly when he died pictures car crash see fast and furious they will be there love Paul walker R I P
p165
aVRT FF7Movie: Deckard Shaw is a special forces assassin. He's coming for vengeance. #Furiou\u2026 http://t.co/fHuOxA1DWk http://t.co/dS8aOcaveV
p166
aVRT @FF7Movie: Deckard Shaw is a special forces assassin. He's coming for vengeance. #Furious7 http://t.co/kU7iLfeGue
p167
aV@FF7Movie ok how does the cars not flip and roll when out of the plane?
p168
aV@FF7Movie ,here is my video tribute for @RealPaulWalker. It's the song #SeeYouAgain from @FastFurious for piano solo\u000ahttps://t.co/cMs4YUL1LT
p169
aVAWP not good. #CQB https://t.co/zJwA0FDj9P
p170
aVRT @FF7Movie: ''No matter where you are... You'll always be with me. And you'll always be my brother.'' #Furious7 #ForPaul http://t.co/IfJD\u2026
p171
aVhttps://t.co/bhxdXhIlKa Draw@FastFurious @FF7Movie @JordanaBrewster @RealPaulWalker #FastFurious7 #Fast7 #FastFamily http://t.co/KalQmXq9rr
p172
aVRT @FF7Movie: We graduated to a whole new level. Thanks to each one of you for your massive love and support! #FastFamily #Furious7 http://\u2026
p173
aVRT @FF7Movie: ''No matter where you are... You'll always be with me. And you'll always be my brother.'' #Furious7 #ForPaul http://t.co/IfJD\u2026
p174
aVRT FF7Movie: Ready to ride. How many times have you seen #Furious7?\u000aSee it again: \u2026 http://t.co/fHuOxA1DWk http://t.co/u8ZnFI0eW0
p175
aVRT @FF7Movie: ''No matter where you are... You'll always be with me. And you'll always be my brother.'' #Furious7 #ForPaul http://t.co/IfJD\u2026
p176
aVRT @FF7Movie: Ready to ride. How many times have you seen #Furious7?\u000aSee it again: http://t.co/WWvdhabjUp http://t.co/sXPRGEPvbC
p177
aVRT @Fast7Quotes: 'A real driver knows exactly what's in his car'- Dominic Toretto http://t.co/Ue3JNrhHfO
p178
aVRT @FF7Movie: Deckard Shaw is a special forces assassin. He's coming for vengeance. #Furious7 http://t.co/kU7iLfeGue
p179
aVRT @FF7Movie: Ready to ride. How many times have you seen #Furious7?\u000aSee it again: http://t.co/WWvdhabjUp http://t.co/sXPRGEPvbC
p180
aVRT @FF7Movie: ''No matter where you are... You'll always be with me. And you'll always be my brother.'' #Furious7 #ForPaul http://t.co/IfJD\u2026
p181
aVRT @FF7Movie: ''No matter where you are... You'll always be with me. And you'll always be my brother.'' #Furious7 #ForPaul http://t.co/IfJD\u2026
p182
aVRT @FF7Movie: ''No matter where you are... You'll always be with me. And you'll always be my brother.'' #Furious7 #ForPaul http://t.co/IfJD\u2026
p183
aVRT @FF7Movie: Ready to ride. How many times have you seen #Furious7?\u000aSee it again: http://t.co/WWvdhabjUp http://t.co/sXPRGEPvbC
p184
aVRT @FF7Movie: #JasonStatham &amp; #VinDiesel go head to head in #Furious7!\u000aGet tickets: http://t.co/WWvdhabjUp http://t.co/XTQXwpf2Eu
p185
aVRT @FF7Movie: Deckard Shaw is a special forces assassin. He's coming for vengeance. #Furious7 http://t.co/kU7iLfeGue
p186
aVRT @FF7Movie: We graduated to a whole new level. Thanks to each one of you for your massive love and support! #FastFamily #Furious7 http://\u2026
p187
aV@FF7Movie The best tribute ever!!!#4Paul.
p188
aV@FF7Movie "...For Paul".
p189
aV@FF7Movie @FastFurious brilliant programme
p190
aVRT @FF7Movie: Deckard Shaw is a special forces assassin. He's coming for vengeance. #Furious7 http://t.co/kU7iLfeGue
p191
aV@FF7Movie ive seen it 4 times on circuit. cant get enough
p192
aVRT FF7Movie: ''No matter where you are... You'll always be with me. And you'll always be m\u2026 http://t.co/fHuOxA1DWk http://t.co/EEPLBEYVXe
p193
aVRT @FF7Movie: ''No matter where you are... You'll always be with me. And you'll always be my brother.'' #Furious7 #ForPaul http://t.co/IfJD\u2026
p194
aVManaged to hold back the tears at the end of @FF7Movie really good film stunts were amazing @vindieselfacts @RealPaulWalker
p195
aVRT @FF7Movie: ''No matter where you are... You'll always be with me. And you'll always be my brother.'' #Furious7 #ForPaul http://t.co/IfJD\u2026
p196
aV@FF7Movie FAST AND FUROUS 7 JASON STATHAM COAT\u000ahttp://t.co/ErS7RN8E3o http://t.co/zB9PErGxEu
p197
aVWatch movies @FF7Movie very very touching @VinDieselPage
p198
aVI really miss you Brian O'conner @FF7Movie @FastFurious \U0001f622\U0001f62d
p199
aVRT @FF7Movie: ''No matter where you are... You'll always be with me. And you'll always be my brother.'' #Furious7 #ForPaul http://t.co/IfJD\u2026
p200
aVRT @FF7Movie: ''Nothing is sadder than locking a beast in a cage..'' - The Lykan featurette: http://t.co/ZKsZ4GvWSq #Furious7 http://t.co/k\u2026
p201
aVRT @FF7Movie: #JasonStatham &amp; #VinDiesel go head to head in #Furious7!\u000aGet tickets: http://t.co/WWvdhabjUp http://t.co/XTQXwpf2Eu
p202
aVRT @FF7Movie: #JasonStatham &amp; #VinDiesel go head to head in #Furious7!\u000aGet tickets: http://t.co/WWvdhabjUp http://t.co/XTQXwpf2Eu
p203
aVRT @FF7Movie: We graduated to a whole new level. Thanks to each one of you for your massive love and support! #FastFamily #Furious7 http://\u2026
p204
asI4
(lp205
VRT @djrae1981: #IF @realpaulwalker #DIED IN THE MAKING OF @ff7movie http://t.co/7fCBCgM4ub explain why he features till the end @sarlou1283\u2026
p206
aV@RealPaulWalker @TheRock @FF7Movie @codywalkerroww I just saw the movie it was awesome the end made me cry
p207
aVRT @FF7Movie: We graduated to a whole new level. Thanks to each one of you for your massive love and support! #FastFamily #Furious7 http://\u2026
p208
aVRT @FF7Movie: Deckard Shaw is a special forces assassin. He's coming for vengeance. #Furious7 http://t.co/kU7iLfeGue
p209
aVRT @FF7Movie: ''No matter where you are... You'll always be with me. And you'll always be my brother.'' #Furious7 #ForPaul http://t.co/IfJD\u2026
p210
aV@FF7Movie \u000aJust watch &amp; like to thanks to all the people who work on it.\u000aSound &amp; pic effect great\u000aScreen link with FF6 is the bonus for fans
p211
aVRT @FF7Movie: ''No matter where you are... You'll always be with me. And you'll always be my brother.'' #Furious7 #ForPaul http://t.co/IfJD\u2026
p212
aVRT @FF7Movie: ''No matter where you are... You'll always be with me. And you'll always be my brother.'' #Furious7 #ForPaul http://t.co/IfJD\u2026
p213
aVRT FF7Movie: We graduated to a whole new level. Thanks to each one of you for your massive\u2026 http://t.co/fHuOxA1DWk http://t.co/5iJLiglFkP
p214
aVRT @FF7Movie: We graduated to a whole new level. Thanks to each one of you for your massive love and support! #FastFamily #Furious7 http://\u2026
p215
aV@FF7Movie was an excellent film. But have to say the end broke me. #emotional #ForPaul #RIPPaulWalker
p216
aV"It's time to release the beast" - Vin Diesel #NowWatching edgy racy speedy smooth &lt;3 @FF7Movie!#Amazeballs forever! http://t.co/CIJqHXNVT5
p217
aV@FF7Movie such a great film. http://t.co/XcarFrbt4G
p218
aVOMG! I saw awesome movie yesterday. Too much real action..Amazing! So excited! @FF7Movie @FastFurious #Furious7 http://t.co/TUJR1Q0HxK
p219
aVRT @FF7Movie: Deckard Shaw is a special forces assassin. He's coming for vengeance. #Furious7 http://t.co/kU7iLfeGue
p220
aVRT @jaynadpatel: http://t.co/KTiizBBmeg  @JacobGauntlett on the @FastFurious legacy &amp; the recent louder flashier faster installment @FF7Mov\u2026
p221
aVRT FF7Movie: #JasonStatham &amp; #VinDiesel go head to head in #Furious7!\u000aGet tickets: \u2026 http://t.co/fHuOxA1DWk http://t.co/gKYQ7bXpRH
p222
aVRT FF7Movie: Deckard Shaw is a special forces assassin. He's coming for vengeance. #Furiou\u2026 http://t.co/fHuOxA1DWk http://t.co/IM9ylzNrp2
p223
aVRT @FF7Movie: #JasonStatham &amp; #VinDiesel go head to head in #Furious7!\u000aGet tickets: http://t.co/WWvdhabjUp http://t.co/XTQXwpf2Eu
p224
aVRT @FF7Movie: Deckard Shaw is a special forces assassin. He's coming for vengeance. #Furious7 http://t.co/kU7iLfeGue
p225
aVRT @FF7Movie: ''No matter where you are... You'll always be with me. And you'll always be my brother.'' #Furious7 #ForPaul http://t.co/IfJD\u2026
p226
aVSeen @FF7Movie twice ...go see it NOW or your so missing out!! #amazing miss you so so so much @RealPaulWalker go see it for PAUL! Go now;)
p227
aVRT @FF7Movie: ''No matter where you are... You'll always be with me. And you'll always be my brother.'' #Furious7 #ForPaul http://t.co/IfJD\u2026
p228
aVRT @FF7Movie: ''No matter where you are... You'll always be with me. And you'll always be my brother.'' #Furious7 #ForPaul http://t.co/IfJD\u2026
p229
aVRT @FF7Movie: ''No matter where you are... You'll always be with me. And you'll always be my brother.'' #Furious7 #ForPaul http://t.co/IfJD\u2026
p230
aVRT @FF7Movie: ''No matter where you are... You'll always be with me. And you'll always be my brother.'' #Furious7 #ForPaul http://t.co/IfJD\u2026
p231
aVRT FF7Movie: Deckard Shaw is a special forces assassin. He's coming for vengeance. #Furiou\u2026 http://t.co/fHuOxA1DWk http://t.co/WwUByYnp9J
p232
aVRT @FF7Movie: Deckard Shaw is a special forces assassin. He's coming for vengeance. #Furious7 http://t.co/kU7iLfeGue
p233
aVRT @FF7Movie: ''Race in paradise!'' #RIPPaulWalker http://t.co/DyiFgwL7D6
p234
aVRT @FF7Movie: Deckard Shaw is a special forces assassin. He's coming for vengeance. #Furious7 http://t.co/kU7iLfeGue
p235
aVRT @JessieJAngeline: "I tell you all about it when I see you again" #ForPaul  @FF7Movie @FastFurious A beautiful tribute for Paul. Always i\u2026
p236
aVRT FF7Movie: We graduated to a whole new level. Thanks to each one of you for your massive\u2026 http://t.co/fHuOxAjeNS http://t.co/INf8gyjPZk
p237
aVRT @FF7Movie: We graduated to a whole new level. Thanks to each one of you for your massive love and support! #FastFamily #Furious7 http://\u2026
p238
aV@TheRock @FF7Movie So good\U0001f44d\U0001f44d\U0001f44d
p239
aVRT @FF7Movie: ''No matter where you are... You'll always be with me. And you'll always be my brother.'' #Furious7 #ForPaul http://t.co/IfJD\u2026
p240
aVRT @FF7Movie: ''No matter where you are... You'll always be with me. And you'll always be my brother.'' #Furious7 #ForPaul http://t.co/IfJD\u2026
p241
aVRT @FF7Movie: We graduated to a whole new level. Thanks to each one of you for your massive love and support! #FastFamily #Furious7 http://\u2026
p242
aVRT @FF7Movie: @djimonhounsou is officialy confirmed for #Fast7, here's a picture of him and #VinDiesel on the set of #FF7 http://t.co/Fdski\u2026
p243
aVRT @FF7Movie: #JasonStatham &amp; #VinDiesel go head to head in #Furious7!\u000aGet tickets: http://t.co/WWvdhabjUp http://t.co/XTQXwpf2Eu
p244
aVRT @FF7Movie: We graduated to a whole new level. Thanks to each one of you for your massive love and support! #FastFamily #Furious7 http://\u2026
p245
aVRT @FF7Movie: Deckard Shaw is a special forces assassin. He's coming for vengeance. #Furious7 http://t.co/kU7iLfeGue
p246
aVRT @FF7Movie: Deckard Shaw is a special forces assassin. He's coming for vengeance. #Furious7 http://t.co/kU7iLfeGue
p247
aVRT @TheRock: It's official: We made history... #Furious7 crosses the $1BILLION mark in record time. 17 days. Im\u2026 https://t.co/Frs72gxDcC
p248
aVYou never give up on family. #Furious7 http://t.co/EF6SjXRNOA"
p249
aVRT @Fast7Quotes: 'A real driver knows exactly what's in his car'- Dominic Toretto http://t.co/Ue3JNrhHfO
p250
aVRT @FF7Movie: Deckard Shaw is a special forces assassin. He's coming for vengeance. #Furious7 http://t.co/kU7iLfeGue
p251
aVRide or die bitches @FF7Movie
p252
aVRide or die @FF7Movie #FastFurious7 @MRodOfficial @JordanaBrewster @GalGadot @FastFurious
p253
aVRT @FF7Movie: Deckard Shaw is a special forces assassin. He's coming for vengeance. #Furious7 http://t.co/kU7iLfeGue
p254
aVRT @khodasevichmis1: @JessieJAngeline @FF7Movie @FastFurious saw your tweet, saw this shirt, thought of you http://t.co/XdSoCQHeAD #ForPaul\u2026
p255
asI5
(lp256
VRT @FF7Movie: Deckard Shaw is a special forces assassin. He's coming for vengeance. #Furious7 http://t.co/kU7iLfeGue
p257
aVRT @FF7Movie: Deckard Shaw is a special forces assassin. He's coming for vengeance. #Furious7 http://t.co/kU7iLfeGue
p258
aVCongratulations to the #FF7  @FF7Movie 1 billion is hard to beat well done gang
p259
aV#ForPaul gone 2 soon @JordanaBrewster @codywalkerroww @RealPaulWalker @Ludacris @FastFurious @FF7Movie http://t.co/gfE7XvkLk9
p260
aV@FF7Movie congrats on a decent movie and great tribute to @RealPaulWalker. @TheRock @MRodOfficial @JordanaBrewster #FastFamily
p261
aV'@FastFurious 7' Already Made a Billion Dollars http://t.co/jhDYLlyXM3 @FastFuriousFilm @UniversalPics @FuriousFast7 @FF7Movie
p262
aVFF7Movie Went to go see the movie today and it was estupendous i give it a 10/10. Awesome \u2026 http://t.co/fHuOxA1DWk http://t.co/q7I3LHvkua
p263
aVIn US and UK top10 movie @FF7Movie @FastFurious Fast and Furious 7 is in both 1st place \U0001f60d\U0001f60d\U0001f60d\U0001f618\U0001f618\U0001f618
p264
aVRT @FF7Movie: Deckard Shaw is a special forces assassin. He's coming for vengeance. #Furious7 http://t.co/kU7iLfeGue
p265
aV@JessieJAngeline @FF7Movie @FastFurious saw your tweet, saw this shirt, thought of you http://t.co/XdSoCQHeAD #ForPaul #TeamPW
p266
aV"I tell you all about it when I see you again" #ForPaul  @FF7Movie @FastFurious A beautiful tribute for Paul. Always in our heart.\u2728\u2764
p267
aV@rs147886 @FF7Movie Yes, really. I cry at the end. See You Again is a very beautiful song for this movie, for Paul.
p268
aVRT FF7Movie: We graduated to a whole new level. Thanks to each one of you for your massive\u2026 http://t.co/fHuOxA1DWk http://t.co/DaPIGhKtur
p269
aVRT @rs147886: @JessieJAngeline @FF7Movie really an awesome movie  ..
p270
aVRT @FF7Movie: We graduated to a whole new level. Thanks to each one of you for your massive love and support! #FastFamily #Furious7 http://\u2026
p271
aVRT @FF7Movie: Deckard Shaw is a special forces assassin. He's coming for vengeance. #Furious7 http://t.co/kU7iLfeGue
p272
aVRT @FF7Movie: Deckard Shaw is a special forces assassin. He's coming for vengeance. #Furious7 http://t.co/kU7iLfeGue
p273
aVRT @FF7Movie: #JasonStatham &amp; #VinDiesel go head to head in #Furious7!\u000aGet tickets: http://t.co/WWvdhabjUp http://t.co/XTQXwpf2Eu
p274
aVRT @FF7Movie: #Furious7 hits theatres in 1 WEEK! Get your tickets now: http://t.co/WWvdhabjUp http://t.co/DinMvVxcxu
p275
aVRT @FF7Movie: Dom squares up against Deckard Shaw. #Furious7 http://t.co/Ef21IIigjZ
p276
aVRT @FF7Movie: Family is what holds us together. Thanks for your continued love and support! #Furious7 http://t.co/Wjv1OVh1Yc
p277
aVRT @FF7Movie: Deckard Shaw is a special forces assassin. He's coming for vengeance. #Furious7 http://t.co/kU7iLfeGue
p278
aVRT @FF7Movie: We graduated to a whole new level. Thanks to each one of you for your massive love and support! #FastFamily #Furious7 http://\u2026
p279
aVRT @FF7Movie: Deckard Shaw is a special forces assassin. He's coming for vengeance. #Furious7 http://t.co/kU7iLfeGue
p280
aVRT @FF7Movie: ''No matter where you are... You'll always be with me. And you'll always be my brother.'' #Furious7 #ForPaul http://t.co/IfJD\u2026
p281
aVRT @FF7Movie: Ready to ride. How many times have you seen #Furious7?\u000aSee it again: http://t.co/WWvdhabjUp http://t.co/sXPRGEPvbC
p282
aVRT @FF7Movie: Deckard Shaw is a special forces assassin. He's coming for vengeance. #Furious7 http://t.co/kU7iLfeGue
p283
aVRT @FF7Movie: Deckard Shaw is a special forces assassin. He's coming for vengeance. #Furious7 http://t.co/kU7iLfeGue
p284
aVRT @FF7Movie: ''No matter where you are... You'll always be with me. And you'll always be my brother.'' #Furious7 #ForPaul http://t.co/IfJD\u2026
p285
aVRT FF7Movie: Deckard Shaw is a special forces assassin. He's coming for vengeance. #Furiou\u2026 http://t.co/fHuOxA1DWk http://t.co/K5DfgIEAAZ
p286
aV@JessieJAngeline @FF7Movie really an awesome movie  ..
p287
aVRT @FF7Movie: Deckard Shaw is a special forces assassin. He's coming for vengeance. #Furious7 http://t.co/kU7iLfeGue
p288
aVRT FF7Movie: Deckard Shaw is a special forces assassin. He's coming for vengeance. #Furiou\u2026 http://t.co/fHuOxA1DWk http://t.co/WtR2Q0LtVj
p289
aVRT FF7Movie: Deckard Shaw is a special forces assassin. He's coming for vengeance. #Furiou\u2026 http://t.co/fHuOxA1DWk http://t.co/JGgDVk6tA3
p290
aVRT @FF7Movie: Deckard Shaw is a special forces assassin. He's coming for vengeance. #Furious7 http://t.co/kU7iLfeGue
p291
aVRT @FF7Movie: Deckard Shaw is a special forces assassin. He's coming for vengeance. #Furious7 http://t.co/kU7iLfeGue
p292
aVRT @FF7Movie: Deckard Shaw is a special forces assassin. He's coming for vengeance. #Furious7 http://t.co/kU7iLfeGue
p293
aVRT FF7Movie: Deckard Shaw is a special forces assassin. He's coming for vengeance. #Furiou\u2026 http://t.co/fHuOxA1DWk http://t.co/JEQpiOE2pL
p294
aVRT @FF7Movie: Deckard Shaw is a special forces assassin. He's coming for vengeance. #Furious7 http://t.co/kU7iLfeGue
p295
aVRT @FF7Movie: Deckard Shaw is a special forces assassin. He's coming for vengeance. #Furious7 http://t.co/kU7iLfeGue
p296
aVRT @FF7Movie: Deckard Shaw is a special forces assassin. He's coming for vengeance. #Furious7 http://t.co/kU7iLfeGue
p297
aVRT @FF7Movie: Deckard Shaw is a special forces assassin. He's coming for vengeance. #Furious7 http://t.co/kU7iLfeGue
p298
aV"@FF7Movie: Deckard Shaw is a special forces assassin. He's coming for vengeance. #Furious7 http://t.co/thLj8eQxca"
p299
aVRT @FF7Movie: Deckard Shaw is a special forces assassin. He's coming for vengeance. #Furious7 http://t.co/kU7iLfeGue
p300
aVI'm in love with @FF7Movie \U0001f60d\U0001f497
p301
aVRT @FF7Movie: Deckard Shaw is a special forces assassin. He's coming for vengeance. #Furious7 http://t.co/kU7iLfeGue
p302
aVRT @FF7Movie: Deckard Shaw is a special forces assassin. He's coming for vengeance. #Furious7 http://t.co/kU7iLfeGue
p303
aVRT @FF7Movie: Deckard Shaw is a special forces assassin. He's coming for vengeance. #Furious7 http://t.co/kU7iLfeGue
p304
aV@FF7Movie loved this movie...cried an laughed
p305
aVRT @FF7Movie: Deckard Shaw is a special forces assassin. He's coming for vengeance. #Furious7 http://t.co/kU7iLfeGue
p306
as.